target datalayout = "e-m:e-p270:32:32-p271:32:32-p272:64:64-i64:64-i128:128-f80:128-n8:16:32:64-S128"
target triple = "x86_64-pc-linux-gnu"

%struct.RESULTS_S = type { i16, i16, i16, [4 x ptr], i32, i32, i32, ptr, %struct.MAT_PARAMS_S, i16, i16, i16, i16, i16, %struct.CORE_PORTABLE_S }
%struct.MAT_PARAMS_S = type { i32, ptr, ptr, ptr }
%struct.CORE_PORTABLE_S = type { i8 }

; Function Attrs: nounwind uwtable
define dso_local ptr @iterate(ptr noundef %0) #0 {
  %2 = alloca ptr, align 8
  %3 = alloca i32, align 4
  %4 = alloca i16, align 2
  %5 = alloca ptr, align 8
  %6 = alloca i32, align 4
  store ptr %0, ptr %2, align 8, !tbaa !4
  call void @llvm.lifetime.start.p0(i64 4, ptr %3) #3
  call void @llvm.lifetime.start.p0(i64 2, ptr %4) #3
  call void @llvm.lifetime.start.p0(i64 8, ptr %5) #3
  %7 = load ptr, ptr %2, align 8, !tbaa !4
  store ptr %7, ptr %5, align 8, !tbaa !8
  call void @llvm.lifetime.start.p0(i64 4, ptr %6) #3
  %8 = load ptr, ptr %5, align 8, !tbaa !8
  %9 = getelementptr inbounds nuw %struct.RESULTS_S, ptr %8, i32 0, i32 5
  %10 = load i32, ptr %9, align 4, !tbaa !10
  store i32 %10, ptr %6, align 4, !tbaa !19
  %11 = load ptr, ptr %5, align 8, !tbaa !8
  %12 = getelementptr inbounds nuw %struct.RESULTS_S, ptr %11, i32 0, i32 9
  store i16 0, ptr %12, align 8, !tbaa !20
  %13 = load ptr, ptr %5, align 8, !tbaa !8
  %14 = getelementptr inbounds nuw %struct.RESULTS_S, ptr %13, i32 0, i32 10
  store i16 0, ptr %14, align 2, !tbaa !21
  %15 = load ptr, ptr %5, align 8, !tbaa !8
  %16 = getelementptr inbounds nuw %struct.RESULTS_S, ptr %15, i32 0, i32 11
  store i16 0, ptr %16, align 4, !tbaa !22
  %17 = load ptr, ptr %5, align 8, !tbaa !8
  %18 = getelementptr inbounds nuw %struct.RESULTS_S, ptr %17, i32 0, i32 12
  store i16 0, ptr %18, align 2, !tbaa !23
  store i32 0, ptr %3, align 4, !tbaa !19
  br label %19

19:                                               ; preds = %51, %1
  %20 = load i32, ptr %3, align 4, !tbaa !19
  %21 = load i32, ptr %6, align 4, !tbaa !19
  %22 = icmp ult i32 %20, %21
  br i1 %22, label %23, label %54

23:                                               ; preds = %19
  %24 = load ptr, ptr %5, align 8, !tbaa !8
  %25 = call zeroext i16 @core_bench_list(ptr noundef %24, i16 noundef signext 1)
  store i16 %25, ptr %4, align 2, !tbaa !24
  %26 = load i16, ptr %4, align 2, !tbaa !24
  %27 = load ptr, ptr %5, align 8, !tbaa !8
  %28 = getelementptr inbounds nuw %struct.RESULTS_S, ptr %27, i32 0, i32 9
  %29 = load i16, ptr %28, align 8, !tbaa !20
  %30 = call zeroext i16 @crcu16(i16 noundef zeroext %26, i16 noundef zeroext %29)
  %31 = load ptr, ptr %5, align 8, !tbaa !8
  %32 = getelementptr inbounds nuw %struct.RESULTS_S, ptr %31, i32 0, i32 9
  store i16 %30, ptr %32, align 8, !tbaa !20
  %33 = load ptr, ptr %5, align 8, !tbaa !8
  %34 = call zeroext i16 @core_bench_list(ptr noundef %33, i16 noundef signext -1)
  store i16 %34, ptr %4, align 2, !tbaa !24
  %35 = load i16, ptr %4, align 2, !tbaa !24
  %36 = load ptr, ptr %5, align 8, !tbaa !8
  %37 = getelementptr inbounds nuw %struct.RESULTS_S, ptr %36, i32 0, i32 9
  %38 = load i16, ptr %37, align 8, !tbaa !20
  %39 = call zeroext i16 @crcu16(i16 noundef zeroext %35, i16 noundef zeroext %38)
  %40 = load ptr, ptr %5, align 8, !tbaa !8
  %41 = getelementptr inbounds nuw %struct.RESULTS_S, ptr %40, i32 0, i32 9
  store i16 %39, ptr %41, align 8, !tbaa !20
  %42 = load i32, ptr %3, align 4, !tbaa !19
  %43 = icmp eq i32 %42, 0
  br i1 %43, label %44, label %50

44:                                               ; preds = %23
  %45 = load ptr, ptr %5, align 8, !tbaa !8
  %46 = getelementptr inbounds nuw %struct.RESULTS_S, ptr %45, i32 0, i32 9
  %47 = load i16, ptr %46, align 8, !tbaa !20
  %48 = load ptr, ptr %5, align 8, !tbaa !8
  %49 = getelementptr inbounds nuw %struct.RESULTS_S, ptr %48, i32 0, i32 10
  store i16 %47, ptr %49, align 2, !tbaa !21
  br label %50

50:                                               ; preds = %44, %23
  br label %51

51:                                               ; preds = %50
  %52 = load i32, ptr %3, align 4, !tbaa !19
  %53 = add i32 %52, 1
  store i32 %53, ptr %3, align 4, !tbaa !19
  br label %19, !llvm.loop !25

54:                                               ; preds = %19
  call void @llvm.lifetime.end.p0(i64 4, ptr %6) #3
  call void @llvm.lifetime.end.p0(i64 8, ptr %5) #3
  call void @llvm.lifetime.end.p0(i64 2, ptr %4) #3
  call void @llvm.lifetime.end.p0(i64 4, ptr %3) #3
  ret ptr null
}