; Function Attrs: nounwind uwtable
define dso_local noalias noundef ptr @iterate(ptr noundef initializes((96, 104)) %0) local_unnamed_addr #0 {
  %2 = getelementptr inbounds nuw i8, ptr %0, i64 44
  %3 = load i32, ptr %2, align 4, !tbaa !4
  %4 = getelementptr inbounds nuw i8, ptr %0, i64 96
  %5 = getelementptr inbounds nuw i8, ptr %0, i64 98
  %.not = icmp eq i32 %3, 0
  store i64 0, ptr %4, align 8
  br i1 %.not, label %._crit_edge, label %.lr.ph

.lr.ph:                                           ; preds = %1, %14
  %.019 = phi i32 [ %15, %14 ], [ 0, %1 ]
  %6 = tail call zeroext i16 @core_bench_list(ptr noundef nonnull %0, i16 noundef signext 1) #6
  %7 = load i16, ptr %4, align 8, !tbaa !16
  %8 = tail call zeroext i16 @crcu16(i16 noundef zeroext %6, i16 noundef zeroext %7) #6
  store i16 %8, ptr %4, align 8, !tbaa !16
  %9 = tail call zeroext i16 @core_bench_list(ptr noundef nonnull %0, i16 noundef signext -1) #6
  %10 = load i16, ptr %4, align 8, !tbaa !16
  %11 = tail call zeroext i16 @crcu16(i16 noundef zeroext %9, i16 noundef zeroext %10) #6
  store i16 %11, ptr %4, align 8, !tbaa !16
  %12 = icmp eq i32 %.019, 0
  br i1 %12, label %13, label %14

13:                                               ; preds = %.lr.ph
  store i16 %11, ptr %5, align 2, !tbaa !17
  br label %14

14:                                               ; preds = %.lr.ph, %13
  %15 = add nuw i32 %.019, 1
  %exitcond.not = icmp eq i32 %15, %3
  br i1 %exitcond.not, label %._crit_edge, label %.lr.ph, !llvm.loop !18

._crit_edge:                                      ; preds = %14, %1
  ret ptr null
}